target datalayout = "e-m:e-p270:32:32-p271:32:32-p272:64:64-i64:64-i128:128-f80:128-n8:16:32:64-S128"
target triple = "x86_64-pc-linux-gnu"

%struct.qlog_st = type { %struct.qlog_trace_info_st, ptr, [1 x i64], i32, ptr, ptr, ptr, %struct.OSSL_TIME, %struct.OSSL_TIME, %struct.ossl_json_enc_st, i32, i32 }
%struct.qlog_trace_info_st = type { %struct.quic_conn_id_st, ptr, ptr, ptr, i32, ptr, ptr, i64, ptr }
%struct.quic_conn_id_st = type { i8, [20 x i8] }
%struct.OSSL_TIME = type { i64 }
%struct.ossl_json_enc_st = type { i32, i8, i8, i8, ptr, i8, [16 x i8], %struct.json_write_buf, i64, i64 }
%struct.json_write_buf = type { ptr, ptr, i64, i64 }

@.str = private unnamed_addr constant [27 x i8] c"../openssl/ssl/quic/qlog.c\00", align 1

; Function Attrs: nounwind uwtable
define void @ossl_qlog_free(ptr noundef %0) #0 {
  %2 = alloca ptr, align 8
  store ptr %0, ptr %2, align 8, !tbaa !8
  %3 = load ptr, ptr %2, align 8, !tbaa !8
  %4 = icmp eq ptr %3, null
  br i1 %4, label %5, label %6

5:                                                ; preds = %1
  br label %30

6:                                                ; preds = %1
  %7 = load ptr, ptr %2, align 8, !tbaa !8
  %8 = getelementptr inbounds nuw %struct.qlog_st, ptr %7, i32 0, i32 9
  %9 = call i32 @ossl_json_flush_cleanup(ptr noundef %8)
  %10 = load ptr, ptr %2, align 8, !tbaa !8
  %11 = getelementptr inbounds nuw %struct.qlog_st, ptr %10, i32 0, i32 1
  %12 = load ptr, ptr %11, align 8, !tbaa !47
  call void @BIO_free_all(ptr noundef %12)
  %13 = load ptr, ptr %2, align 8, !tbaa !8
  %14 = getelementptr inbounds nuw %struct.qlog_st, ptr %13, i32 0, i32 0
  %15 = getelementptr inbounds nuw %struct.qlog_trace_info_st, ptr %14, i32 0, i32 1
  %16 = load ptr, ptr %15, align 8, !tbaa !31
  call void @CRYPTO_free(ptr noundef %16, ptr noundef @.str, i32 noundef 167)
  %17 = load ptr, ptr %2, align 8, !tbaa !8
  %18 = getelementptr inbounds nuw %struct.qlog_st, ptr %17, i32 0, i32 0
  %19 = getelementptr inbounds nuw %struct.qlog_trace_info_st, ptr %18, i32 0, i32 2
  %20 = load ptr, ptr %19, align 8, !tbaa !33
  call void @CRYPTO_free(ptr noundef %20, ptr noundef @.str, i32 noundef 168)
  %21 = load ptr, ptr %2, align 8, !tbaa !8
  %22 = getelementptr inbounds nuw %struct.qlog_st, ptr %21, i32 0, i32 0
  %23 = getelementptr inbounds nuw %struct.qlog_trace_info_st, ptr %22, i32 0, i32 3
  %24 = load ptr, ptr %23, align 8, !tbaa !35
  call void @CRYPTO_free(ptr noundef %24, ptr noundef @.str, i32 noundef 169)
  %25 = load ptr, ptr %2, align 8, !tbaa !8
  %26 = getelementptr inbounds nuw %struct.qlog_st, ptr %25, i32 0, i32 0
  %27 = getelementptr inbounds nuw %struct.qlog_trace_info_st, ptr %26, i32 0, i32 8
  %28 = load ptr, ptr %27, align 8, !tbaa !37
  call void @CRYPTO_free(ptr noundef %28, ptr noundef @.str, i32 noundef 170)
  %29 = load ptr, ptr %2, align 8, !tbaa !8
  call void @CRYPTO_free(ptr noundef %29, ptr noundef @.str, i32 noundef 171)
  br label %30

30:                                               ; preds = %6, %5
  ret void
}